(dp1
S'basic_reports'
p2
(dp3
S'bars'
p4
(dp5
g4
S'/scratch/lsa_fluxm/marschmi/Nov2016_LakeMI_Muskegon/Seq_Data/stability-m0.10-A0-M0-d4/FIGURES/__default__/bars/bars'
p6
ssS'lines'
p7
(dp8
g7
S'/scratch/lsa_fluxm/marschmi/Nov2016_LakeMI_Muskegon/Seq_Data/stability-m0.10-A0-M0-d4/FIGURES/__default__/lines/lines'
p9
sssS'basic_analyses'
p10
(dp11
S'cluster_analysis'
p12
(dp13
S'bray'
p14
S'/scratch/lsa_fluxm/marschmi/Nov2016_LakeMI_Muskegon/Seq_Data/stability-m0.10-A0-M0-d4/FIGURES/__default__/cluster_analysis/bray'
p15
sS'kulczynski'
p16
S'/scratch/lsa_fluxm/marschmi/Nov2016_LakeMI_Muskegon/Seq_Data/stability-m0.10-A0-M0-d4/FIGURES/__default__/cluster_analysis/kulczynski'
p17
sS'horn'
p18
S'/scratch/lsa_fluxm/marschmi/Nov2016_LakeMI_Muskegon/Seq_Data/stability-m0.10-A0-M0-d4/FIGURES/__default__/cluster_analysis/horn'
p19
sS'canberra'
p20
S'/scratch/lsa_fluxm/marschmi/Nov2016_LakeMI_Muskegon/Seq_Data/stability-m0.10-A0-M0-d4/FIGURES/__default__/cluster_analysis/canberra'
p21
sS'jaccard'
p22
S'/scratch/lsa_fluxm/marschmi/Nov2016_LakeMI_Muskegon/Seq_Data/stability-m0.10-A0-M0-d4/FIGURES/__default__/cluster_analysis/jaccard'
p23
ssS'nmds_analysis'
p24
(dp25
g14
S'/scratch/lsa_fluxm/marschmi/Nov2016_LakeMI_Muskegon/Seq_Data/stability-m0.10-A0-M0-d4/FIGURES/__default__/nmds_analysis/bray'
p26
sg16
S'/scratch/lsa_fluxm/marschmi/Nov2016_LakeMI_Muskegon/Seq_Data/stability-m0.10-A0-M0-d4/FIGURES/__default__/nmds_analysis/kulczynski'
p27
sg18
S'/scratch/lsa_fluxm/marschmi/Nov2016_LakeMI_Muskegon/Seq_Data/stability-m0.10-A0-M0-d4/FIGURES/__default__/nmds_analysis/horn'
p28
sg20
S'/scratch/lsa_fluxm/marschmi/Nov2016_LakeMI_Muskegon/Seq_Data/stability-m0.10-A0-M0-d4/FIGURES/__default__/nmds_analysis/canberra'
p29
sg22
S'/scratch/lsa_fluxm/marschmi/Nov2016_LakeMI_Muskegon/Seq_Data/stability-m0.10-A0-M0-d4/FIGURES/__default__/nmds_analysis/jaccard'
p30
sss.