(dp1
S'num_raw_nodes'
p2
S'485'
p3
sS'num_final_nodes'
p4
S'487'
p5
sS'average_read_length'
p6
I253
sS'matrix_count_file_path'
p7
S'/scratch/lsa_fluxm/marschmi/Nov2016_LakeMI_Muskegon/Seq_Data/stability-m0.10-A0-M0-d4/MATRIX-COUNT.txt'
p8
sS'skip_removing_outliers'
p9
I00
sS'merge_homopolymer_splits'
p10
I00
sS'nodes_directory'
p11
S'/scratch/lsa_fluxm/marschmi/Nov2016_LakeMI_Muskegon/Seq_Data/stability-m0.10-A0-M0-d4/NODES'
p12
sS'removed_outliers_total'
p13
S'1,784,029'
p14
sS'environment_file_path'
p15
S'/scratch/lsa_fluxm/marschmi/Nov2016_LakeMI_Muskegon/Seq_Data/stability-m0.10-A0-M0-d4/ENVIRONMENT.txt'
p16
sS'final_maximum_variation_allowed_reason'
p17
S'427,929'
p18
sS'final_min_substantive_abundance_reason'
p19
S'1,356,100'
p20
sS'num_samples_in_fasta'
p21
S'590'
p22
sS'run_date'
p23
S'08 Nov 16 04:57:11'
p24
sS'num_sequences_after_qc'
p25
S'5,147,937'
p26
sS'final_outliers_total'
p27
S'1,784,029'
p28
sS'end_of_run'
p29
S'08 Nov 16 05:16:21'
p30
sS'node_representatives_file_path'
p31
S'/scratch/lsa_fluxm/marschmi/Nov2016_LakeMI_Muskegon/Seq_Data/stability-m0.10-A0-M0-d4/NODE-REPRESENTATIVES.fasta'
p32
sS'topology_text'
p33
S'/scratch/lsa_fluxm/marschmi/Nov2016_LakeMI_Muskegon/Seq_Data/stability-m0.10-A0-M0-d4/TOPOLOGY.txt'
p34
sS'version'
p35
S'2.1'
p36
sS'cmd_line'
p37
S'/home/marschmi/.local/bin/decompose stability.trim.contigs.good.unique.good.filter.unique.pick.redundant.fasta_headers-replaced.fasta-PADDED-WITH-GAPS'
p38
sS'maximum_variation_allowed'
p39
I3
sS'gexf_network_file_path'
p40
S'/scratch/lsa_fluxm/marschmi/Nov2016_LakeMI_Muskegon/Seq_Data/stability-m0.10-A0-M0-d4/NETWORK.gexf'
p41
sS'read_distribution_table_path'
p42
S'/scratch/lsa_fluxm/marschmi/Nov2016_LakeMI_Muskegon/Seq_Data/stability-m0.10-A0-M0-d4/READ-DISTRIBUTION.txt'
p43
sS'alignment_length'
p44
I615
sS'A'
I0
sS'removed_min_substantive_abundance_reason'
p45
S'1,356,100'
p46
sS'info_file_path'
p47
S'/scratch/lsa_fluxm/marschmi/Nov2016_LakeMI_Muskegon/Seq_Data/stability-m0.10-A0-M0-d4/RUNINFO'
p48
sS'log_file_path'
p49
S'/scratch/lsa_fluxm/marschmi/Nov2016_LakeMI_Muskegon/Seq_Data/stability-m0.10-A0-M0-d4/RUNINFO.log'
p50
sS'sample_mapping'
p51
NsS'matrix_percent_file_path'
p52
S'/scratch/lsa_fluxm/marschmi/Nov2016_LakeMI_Muskegon/Seq_Data/stability-m0.10-A0-M0-d4/MATRIX-PERCENT.txt'
p53
sS'normalize_m'
p54
I01
sS'total_seq'
p55
S'6,931,966'
p56
sS'M'
F1386
sS'topology_gexf'
p57
S'/scratch/lsa_fluxm/marschmi/Nov2016_LakeMI_Muskegon/Seq_Data/stability-m0.10-A0-M0-d4/TOPOLOGY.gexf'
p58
sS'output_directory'
p59
S'/scratch/lsa_fluxm/marschmi/Nov2016_LakeMI_Muskegon/Seq_Data/stability-m0.10-A0-M0-d4'
p60
sS'store_topology_dict'
p61
I00
sS'tmp_directory'
p62
S'/scratch/lsa_fluxm/marschmi/Nov2016_LakeMI_Muskegon/Seq_Data/stability-m0.10-A0-M0-d4/TMP'
p63
sS'skip_gen_figures'
p64
I00
sS'figures_directory'
p65
S'/scratch/lsa_fluxm/marschmi/Nov2016_LakeMI_Muskegon/Seq_Data/stability-m0.10-A0-M0-d4/FIGURES'
p66
sS'root_alignment'
p67
S'stability.trim.contigs.good.unique.good.filter.unique.pick.redundant.fasta_headers-replaced.fasta-PADDED-WITH-GAPS'
p68
sS'd'
I4
sS'figures_dict_file_path'
p69
S'/scratch/lsa_fluxm/marschmi/Nov2016_LakeMI_Muskegon/Seq_Data/stability-m0.10-A0-M0-d4/FIGURES.cPickle'
p70
sS'm'
F0.096500000000000002
sS'project'
p71
S'stability'
p72
sS'relocate_outliers'
p73
I00
sS'multi_threaded'
p74
I01
sS'quick'
p75
I00
sS'removed_maximum_variation_allowed_reason'
p76
S'427,929'
p77
s.